(lp1
ccopy_reg
_reconstructor
p2
(cfatiando.mesher
Prism
p3
c__builtin__
object
p4
NtRp5
(dp6
S'y2'
p7
F16997.408717142855
sS'y1'
p8
F16053.108232857141
sS'props'
p9
(dp10
S'magnetization'
p11
I6
ssS'x2'
p12
F7382.2237279999999
sS'x1'
p13
F6459.4457620000003
sS'z1'
p14
F-317.25788999999997
sS'z2'
p15
F640.07072812500007
sbag2
(g3
g4
NtRp16
(dp17
g7
F17941.70920142857
sg8
F16997.408717142855
sg9
(dp18
g11
I6
ssg12
F5536.6677959999997
sg13
F4613.8898300000001
sg14
F-317.25788999999997
sg15
F640.07072812500007
sbag2
(g3
g4
NtRp19
(dp20
g7
F17941.70920142857
sg8
F16997.408717142855
sg9
(dp21
g11
I6
ssg12
F6459.4457619999994
sg13
F5536.6677959999997
sg14
F-317.25788999999997
sg15
F640.07072812500007
sbag2
(g3
g4
NtRp22
(dp23
g7
F17941.70920142857
sg8
F16997.408717142855
sg9
(dp24
g11
I6
ssg12
F7382.2237279999999
sg13
F6459.4457620000003
sg14
F-317.25788999999997
sg15
F640.07072812500007
sbag2
(g3
g4
NtRp25
(dp26
g7
F17941.70920142857
sg8
F16997.408717142855
sg9
(dp27
g11
I6
ssg12
F8305.0016940000005
sg13
F7382.2237279999999
sg14
F-317.25788999999997
sg15
F640.07072812500007
sbag2
(g3
g4
NtRp28
(dp29
g7
F17941.70920142857
sg8
F16997.408717142855
sg9
(dp30
g11
I6
ssg12
F9227.7796600000001
sg13
F8305.0016940000005
sg14
F-317.25788999999997
sg15
F640.07072812500007
sbag2
(g3
g4
NtRp31
(dp32
g7
F13220.206779999999
sg8
F12275.906295714285
sg9
(dp33
g11
I6
ssg12
F6459.4457619999994
sg13
F5536.6677959999997
sg14
F640.07072812500007
sg15
F1597.3993462500002
sbag2
(g3
g4
NtRp34
(dp35
g7
F13220.206779999999
sg8
F12275.906295714285
sg9
(dp36
g11
I6
ssg12
F8305.0016940000005
sg13
F7382.2237279999999
sg14
F640.07072812500007
sg15
F1597.3993462500002
sbag2
(g3
g4
NtRp37
(dp38
g7
F13220.206779999999
sg8
F12275.906295714285
sg9
(dp39
g11
I6
ssg12
F9227.7796600000001
sg13
F8305.0016940000005
sg14
F640.07072812500007
sg15
F1597.3993462500002
sbag2
(g3
g4
NtRp40
(dp41
g7
F14164.507264285712
sg8
F13220.206779999999
sg9
(dp42
g11
I6
ssg12
F5536.6677959999997
sg13
F4613.8898300000001
sg14
F640.07072812500007
sg15
F1597.3993462500002
sbag2
(g3
g4
NtRp43
(dp44
g7
F14164.507264285712
sg8
F13220.206779999999
sg9
(dp45
g11
I6
ssg12
F6459.4457619999994
sg13
F5536.6677959999997
sg14
F640.07072812500007
sg15
F1597.3993462500002
sbag2
(g3
g4
NtRp46
(dp47
g7
F14164.507264285712
sg8
F13220.206779999999
sg9
(dp48
g11
I6
ssg12
F7382.2237279999999
sg13
F6459.4457620000003
sg14
F640.07072812500007
sg15
F1597.3993462500002
sbag2
(g3
g4
NtRp49
(dp50
g7
F14164.507264285712
sg8
F13220.206779999999
sg9
(dp51
g11
I6
ssg12
F8305.0016940000005
sg13
F7382.2237279999999
sg14
F640.07072812500007
sg15
F1597.3993462500002
sbag2
(g3
g4
NtRp52
(dp53
g7
F14164.507264285712
sg8
F13220.206779999999
sg9
(dp54
g11
I6
ssg12
F9227.7796600000001
sg13
F8305.0016940000005
sg14
F640.07072812500007
sg15
F1597.3993462500002
sbag2
(g3
g4
NtRp55
(dp56
g7
F14164.507264285712
sg8
F13220.206779999999
sg9
(dp57
g11
I6
ssg12
F10150.557626
sg13
F9227.7796600000001
sg14
F640.07072812500007
sg15
F1597.3993462500002
sbag2
(g3
g4
NtRp58
(dp59
g7
F15108.807748571428
sg8
F14164.507264285714
sg9
(dp60
g11
I6
ssg12
F4613.8898300000001
sg13
F3691.111864
sg14
F640.07072812500007
sg15
F1597.3993462500002
sbag2
(g3
g4
NtRp61
(dp62
g7
F15108.807748571428
sg8
F14164.507264285714
sg9
(dp63
g11
I6
ssg12
F5536.6677959999997
sg13
F4613.8898300000001
sg14
F640.07072812500007
sg15
F1597.3993462500002
sbag2
(g3
g4
NtRp64
(dp65
g7
F15108.807748571428
sg8
F14164.507264285714
sg9
(dp66
g11
I6
ssg12
F6459.4457619999994
sg13
F5536.6677959999997
sg14
F640.07072812500007
sg15
F1597.3993462500002
sbag2
(g3
g4
NtRp67
(dp68
g7
F15108.807748571428
sg8
F14164.507264285714
sg9
(dp69
g11
I6
ssg12
F7382.2237279999999
sg13
F6459.4457620000003
sg14
F640.07072812500007
sg15
F1597.3993462500002
sbag2
(g3
g4
NtRp70
(dp71
g7
F15108.807748571428
sg8
F14164.507264285714
sg9
(dp72
g11
I6
ssg12
F8305.0016940000005
sg13
F7382.2237279999999
sg14
F640.07072812500007
sg15
F1597.3993462500002
sbag2
(g3
g4
NtRp73
(dp74
g7
F15108.807748571428
sg8
F14164.507264285714
sg9
(dp75
g11
I6
ssg12
F9227.7796600000001
sg13
F8305.0016940000005
sg14
F640.07072812500007
sg15
F1597.3993462500002
sbag2
(g3
g4
NtRp76
(dp77
g7
F15108.807748571428
sg8
F14164.507264285714
sg9
(dp78
g11
I6
ssg12
F10150.557626
sg13
F9227.7796600000001
sg14
F640.07072812500007
sg15
F1597.3993462500002
sbag2
(g3
g4
NtRp79
(dp80
g7
F15108.807748571428
sg8
F14164.507264285714
sg9
(dp81
g11
I6
ssg12
F11073.335591999999
sg13
F10150.557626
sg14
F640.07072812500007
sg15
F1597.3993462500002
sbag2
(g3
g4
NtRp82
(dp83
g7
F16053.108232857141
sg8
F15108.807748571428
sg9
(dp84
g11
I6
ssg12
F4613.8898300000001
sg13
F3691.111864
sg14
F640.07072812500007
sg15
F1597.3993462500002
sbag2
(g3
g4
NtRp85
(dp86
g7
F16053.108232857141
sg8
F15108.807748571428
sg9
(dp87
g11
I6
ssg12
F5536.6677959999997
sg13
F4613.8898300000001
sg14
F640.07072812500007
sg15
F1597.3993462500002
sbag2
(g3
g4
NtRp88
(dp89
g7
F16053.108232857141
sg8
F15108.807748571428
sg9
(dp90
g11
I6
ssg12
F6459.4457619999994
sg13
F5536.6677959999997
sg14
F640.07072812500007
sg15
F1597.3993462500002
sbag2
(g3
g4
NtRp91
(dp92
g7
F16053.108232857141
sg8
F15108.807748571428
sg9
(dp93
g11
I6
ssg12
F7382.2237279999999
sg13
F6459.4457620000003
sg14
F640.07072812500007
sg15
F1597.3993462500002
sbag2
(g3
g4
NtRp94
(dp95
g7
F16053.108232857141
sg8
F15108.807748571428
sg9
(dp96
g11
I6
ssg12
F8305.0016940000005
sg13
F7382.2237279999999
sg14
F640.07072812500007
sg15
F1597.3993462500002
sbag2
(g3
g4
NtRp97
(dp98
g7
F16053.108232857141
sg8
F15108.807748571428
sg9
(dp99
g11
I6
ssg12
F9227.7796600000001
sg13
F8305.0016940000005
sg14
F640.07072812500007
sg15
F1597.3993462500002
sbag2
(g3
g4
NtRp100
(dp101
g7
F16053.108232857141
sg8
F15108.807748571428
sg9
(dp102
g11
I6
ssg12
F10150.557626
sg13
F9227.7796600000001
sg14
F640.07072812500007
sg15
F1597.3993462500002
sbag2
(g3
g4
NtRp103
(dp104
g7
F16053.108232857141
sg8
F15108.807748571428
sg9
(dp105
g11
I6
ssg12
F11073.335591999999
sg13
F10150.557626
sg14
F640.07072812500007
sg15
F1597.3993462500002
sbag2
(g3
g4
NtRp106
(dp107
g7
F16997.408717142855
sg8
F16053.108232857141
sg9
(dp108
g11
I6
ssg12
F5536.6677959999997
sg13
F4613.8898300000001
sg14
F640.07072812500007
sg15
F1597.3993462500002
sbag2
(g3
g4
NtRp109
(dp110
g7
F16997.408717142855
sg8
F16053.108232857141
sg9
(dp111
g11
I6
ssg12
F6459.4457619999994
sg13
F5536.6677959999997
sg14
F640.07072812500007
sg15
F1597.3993462500002
sbag2
(g3
g4
NtRp112
(dp113
g7
F16997.408717142855
sg8
F16053.108232857141
sg9
(dp114
g11
I6
ssg12
F7382.2237279999999
sg13
F6459.4457620000003
sg14
F640.07072812500007
sg15
F1597.3993462500002
sbag2
(g3
g4
NtRp115
(dp116
g7
F16997.408717142855
sg8
F16053.108232857141
sg9
(dp117
g11
I6
ssg12
F8305.0016940000005
sg13
F7382.2237279999999
sg14
F640.07072812500007
sg15
F1597.3993462500002
sbag2
(g3
g4
NtRp118
(dp119
g7
F16997.408717142855
sg8
F16053.108232857141
sg9
(dp120
g11
I6
ssg12
F10150.557626
sg13
F9227.7796600000001
sg14
F640.07072812500007
sg15
F1597.3993462500002
sbag2
(g3
g4
NtRp121
(dp122
g7
F16997.408717142855
sg8
F16053.108232857141
sg9
(dp123
g11
I6
ssg12
F11073.335591999999
sg13
F10150.557626
sg14
F640.07072812500007
sg15
F1597.3993462500002
sbag2
(g3
g4
NtRp124
(dp125
g7
F17941.70920142857
sg8
F16997.408717142855
sg9
(dp126
g11
I6
ssg12
F5536.6677959999997
sg13
F4613.8898300000001
sg14
F640.07072812500007
sg15
F1597.3993462500002
sbag2
(g3
g4
NtRp127
(dp128
g7
F17941.70920142857
sg8
F16997.408717142855
sg9
(dp129
g11
I6
ssg12
F6459.4457619999994
sg13
F5536.6677959999997
sg14
F640.07072812500007
sg15
F1597.3993462500002
sbag2
(g3
g4
NtRp130
(dp131
g7
F17941.70920142857
sg8
F16997.408717142855
sg9
(dp132
g11
I6
ssg12
F7382.2237279999999
sg13
F6459.4457620000003
sg14
F640.07072812500007
sg15
F1597.3993462500002
sbag2
(g3
g4
NtRp133
(dp134
g7
F17941.70920142857
sg8
F16997.408717142855
sg9
(dp135
g11
I6
ssg12
F8305.0016940000005
sg13
F7382.2237279999999
sg14
F640.07072812500007
sg15
F1597.3993462500002
sbag2
(g3
g4
NtRp136
(dp137
g7
F17941.70920142857
sg8
F16997.408717142855
sg9
(dp138
g11
I6
ssg12
F10150.557626
sg13
F9227.7796600000001
sg14
F640.07072812500007
sg15
F1597.3993462500002
sbag2
(g3
g4
NtRp139
(dp140
g7
F17941.70920142857
sg8
F16997.408717142855
sg9
(dp141
g11
I6
ssg12
F11073.335591999999
sg13
F10150.557626
sg14
F640.07072812500007
sg15
F1597.3993462500002
sbag2
(g3
g4
NtRp142
(dp143
g7
F17941.70920142857
sg8
F16997.408717142855
sg9
(dp144
g11
I6
ssg12
F11996.113557999999
sg13
F11073.335591999999
sg14
F640.07072812500007
sg15
F1597.3993462500002
sbag2
(g3
g4
NtRp145
(dp146
g7
F18886.009685714285
sg8
F17941.70920142857
sg9
(dp147
g11
I6
ssg12
F5536.6677959999997
sg13
F4613.8898300000001
sg14
F640.07072812500007
sg15
F1597.3993462500002
sbag2
(g3
g4
NtRp148
(dp149
g7
F18886.009685714285
sg8
F17941.70920142857
sg9
(dp150
g11
I6
ssg12
F6459.4457619999994
sg13
F5536.6677959999997
sg14
F640.07072812500007
sg15
F1597.3993462500002
sbag2
(g3
g4
NtRp151
(dp152
g7
F18886.009685714285
sg8
F17941.70920142857
sg9
(dp153
g11
I6
ssg12
F7382.2237279999999
sg13
F6459.4457620000003
sg14
F640.07072812500007
sg15
F1597.3993462500002
sbag2
(g3
g4
NtRp154
(dp155
g7
F18886.009685714285
sg8
F17941.70920142857
sg9
(dp156
g11
I6
ssg12
F8305.0016940000005
sg13
F7382.2237279999999
sg14
F640.07072812500007
sg15
F1597.3993462500002
sbag2
(g3
g4
NtRp157
(dp158
g7
F18886.009685714285
sg8
F17941.70920142857
sg9
(dp159
g11
I6
ssg12
F10150.557626
sg13
F9227.7796600000001
sg14
F640.07072812500007
sg15
F1597.3993462500002
sbag2
(g3
g4
NtRp160
(dp161
g7
F18886.009685714285
sg8
F17941.70920142857
sg9
(dp162
g11
I6
ssg12
F11073.335591999999
sg13
F10150.557626
sg14
F640.07072812500007
sg15
F1597.3993462500002
sbag2
(g3
g4
NtRp163
(dp164
g7
F18886.009685714285
sg8
F17941.70920142857
sg9
(dp165
g11
I6
ssg12
F11996.113557999999
sg13
F11073.335591999999
sg14
F640.07072812500007
sg15
F1597.3993462500002
sbag2
(g3
g4
NtRp166
(dp167
g7
F19830.310170000001
sg8
F18886.009685714285
sg9
(dp168
g11
I6
ssg12
F6459.4457619999994
sg13
F5536.6677959999997
sg14
F640.07072812500007
sg15
F1597.3993462500002
sbag2
(g3
g4
NtRp169
(dp170
g7
F19830.310170000001
sg8
F18886.009685714285
sg9
(dp171
g11
I6
ssg12
F7382.2237279999999
sg13
F6459.4457620000003
sg14
F640.07072812500007
sg15
F1597.3993462500002
sbag2
(g3
g4
NtRp172
(dp173
g7
F19830.310170000001
sg8
F18886.009685714285
sg9
(dp174
g11
I6
ssg12
F8305.0016940000005
sg13
F7382.2237279999999
sg14
F640.07072812500007
sg15
F1597.3993462500002
sbag2
(g3
g4
NtRp175
(dp176
g7
F19830.310170000001
sg8
F18886.009685714285
sg9
(dp177
g11
I6
ssg12
F9227.7796600000001
sg13
F8305.0016940000005
sg14
F640.07072812500007
sg15
F1597.3993462500002
sbag2
(g3
g4
NtRp178
(dp179
g7
F19830.310170000001
sg8
F18886.009685714285
sg9
(dp180
g11
I6
ssg12
F10150.557626
sg13
F9227.7796600000001
sg14
F640.07072812500007
sg15
F1597.3993462500002
sbag2
(g3
g4
NtRp181
(dp182
g7
F19830.310170000001
sg8
F18886.009685714285
sg9
(dp183
g11
I6
ssg12
F11073.335591999999
sg13
F10150.557626
sg14
F640.07072812500007
sg15
F1597.3993462500002
sbag2
(g3
g4
NtRp184
(dp185
g7
F19830.310170000001
sg8
F18886.009685714285
sg9
(dp186
g11
I6
ssg12
F11996.113557999999
sg13
F11073.335591999999
sg14
F640.07072812500007
sg15
F1597.3993462500002
sbag2
(g3
g4
NtRp187
(dp188
g7
F20774.610654285712
sg8
F19830.310169999997
sg9
(dp189
g11
I6
ssg12
F6459.4457619999994
sg13
F5536.6677959999997
sg14
F640.07072812500007
sg15
F1597.3993462500002
sbag2
(g3
g4
NtRp190
(dp191
g7
F20774.610654285712
sg8
F19830.310169999997
sg9
(dp192
g11
I6
ssg12
F8305.0016940000005
sg13
F7382.2237279999999
sg14
F640.07072812500007
sg15
F1597.3993462500002
sbag2
(g3
g4
NtRp193
(dp194
g7
F20774.610654285712
sg8
F19830.310169999997
sg9
(dp195
g11
I6
ssg12
F9227.7796600000001
sg13
F8305.0016940000005
sg14
F640.07072812500007
sg15
F1597.3993462500002
sbag2
(g3
g4
NtRp196
(dp197
g7
F20774.610654285712
sg8
F19830.310169999997
sg9
(dp198
g11
I6
ssg12
F10150.557626
sg13
F9227.7796600000001
sg14
F640.07072812500007
sg15
F1597.3993462500002
sbag2
(g3
g4
NtRp199
(dp200
g7
F20774.610654285712
sg8
F19830.310169999997
sg9
(dp201
g11
I6
ssg12
F11073.335591999999
sg13
F10150.557626
sg14
F640.07072812500007
sg15
F1597.3993462500002
sbag2
(g3
g4
NtRp202
(dp203
g7
F20774.610654285712
sg8
F19830.310169999997
sg9
(dp204
g11
I6
ssg12
F11996.113557999999
sg13
F11073.335591999999
sg14
F640.07072812500007
sg15
F1597.3993462500002
sbag2
(g3
g4
NtRp205
(dp206
g7
F12275.906295714283
sg8
F11331.60581142857
sg9
(dp207
g11
I6
ssg12
F9227.7796600000001
sg13
F8305.0016940000005
sg14
F1597.3993462500002
sg15
F2554.7279643750003
sbag2
(g3
g4
NtRp208
(dp209
g7
F13220.206779999999
sg8
F12275.906295714285
sg9
(dp210
g11
I6
ssg12
F7382.2237279999999
sg13
F6459.4457620000003
sg14
F1597.3993462500002
sg15
F2554.7279643750003
sbag2
(g3
g4
NtRp211
(dp212
g7
F13220.206779999999
sg8
F12275.906295714285
sg9
(dp213
g11
I6
ssg12
F8305.0016940000005
sg13
F7382.2237279999999
sg14
F1597.3993462500002
sg15
F2554.7279643750003
sbag2
(g3
g4
NtRp214
(dp215
g7
F13220.206779999999
sg8
F12275.906295714285
sg9
(dp216
g11
I6
ssg12
F9227.7796600000001
sg13
F8305.0016940000005
sg14
F1597.3993462500002
sg15
F2554.7279643750003
sbag2
(g3
g4
NtRp217
(dp218
g7
F13220.206779999999
sg8
F12275.906295714285
sg9
(dp219
g11
I6
ssg12
F10150.557626
sg13
F9227.7796600000001
sg14
F1597.3993462500002
sg15
F2554.7279643750003
sbag2
(g3
g4
NtRp220
(dp221
g7
F14164.507264285712
sg8
F13220.206779999999
sg9
(dp222
g11
I6
ssg12
F5536.6677959999997
sg13
F4613.8898300000001
sg14
F1597.3993462500002
sg15
F2554.7279643750003
sbag2
(g3
g4
NtRp223
(dp224
g7
F14164.507264285712
sg8
F13220.206779999999
sg9
(dp225
g11
I6
ssg12
F6459.4457619999994
sg13
F5536.6677959999997
sg14
F1597.3993462500002
sg15
F2554.7279643750003
sbag2
(g3
g4
NtRp226
(dp227
g7
F14164.507264285712
sg8
F13220.206779999999
sg9
(dp228
g11
I6
ssg12
F7382.2237279999999
sg13
F6459.4457620000003
sg14
F1597.3993462500002
sg15
F2554.7279643750003
sbag2
(g3
g4
NtRp229
(dp230
g7
F14164.507264285712
sg8
F13220.206779999999
sg9
(dp231
g11
I6
ssg12
F8305.0016940000005
sg13
F7382.2237279999999
sg14
F1597.3993462500002
sg15
F2554.7279643750003
sbag2
(g3
g4
NtRp232
(dp233
g7
F14164.507264285712
sg8
F13220.206779999999
sg9
(dp234
g11
I6
ssg12
F9227.7796600000001
sg13
F8305.0016940000005
sg14
F1597.3993462500002
sg15
F2554.7279643750003
sbag2
(g3
g4
NtRp235
(dp236
g7
F14164.507264285712
sg8
F13220.206779999999
sg9
(dp237
g11
I6
ssg12
F10150.557626
sg13
F9227.7796600000001
sg14
F1597.3993462500002
sg15
F2554.7279643750003
sbag2
(g3
g4
NtRp238
(dp239
g7
F15108.807748571428
sg8
F14164.507264285714
sg9
(dp240
g11
I6
ssg12
F5536.6677959999997
sg13
F4613.8898300000001
sg14
F1597.3993462500002
sg15
F2554.7279643750003
sbag2
(g3
g4
NtRp241
(dp242
g7
F15108.807748571428
sg8
F14164.507264285714
sg9
(dp243
g11
I6
ssg12
F6459.4457619999994
sg13
F5536.6677959999997
sg14
F1597.3993462500002
sg15
F2554.7279643750003
sbag2
(g3
g4
NtRp244
(dp245
g7
F15108.807748571428
sg8
F14164.507264285714
sg9
(dp246
g11
I6
ssg12
F7382.2237279999999
sg13
F6459.4457620000003
sg14
F1597.3993462500002
sg15
F2554.7279643750003
sbag2
(g3
g4
NtRp247
(dp248
g7
F15108.807748571428
sg8
F14164.507264285714
sg9
(dp249
g11
I6
ssg12
F8305.0016940000005
sg13
F7382.2237279999999
sg14
F1597.3993462500002
sg15
F2554.7279643750003
sbag2
(g3
g4
NtRp250
(dp251
g7
F15108.807748571428
sg8
F14164.507264285714
sg9
(dp252
g11
I6
ssg12
F9227.7796600000001
sg13
F8305.0016940000005
sg14
F1597.3993462500002
sg15
F2554.7279643750003
sbag2
(g3
g4
NtRp253
(dp254
g7
F15108.807748571428
sg8
F14164.507264285714
sg9
(dp255
g11
I6
ssg12
F10150.557626
sg13
F9227.7796600000001
sg14
F1597.3993462500002
sg15
F2554.7279643750003
sbag2
(g3
g4
NtRp256
(dp257
g7
F15108.807748571428
sg8
F14164.507264285714
sg9
(dp258
g11
I6
ssg12
F11073.335591999999
sg13
F10150.557626
sg14
F1597.3993462500002
sg15
F2554.7279643750003
sbag2
(g3
g4
NtRp259
(dp260
g7
F16053.108232857141
sg8
F15108.807748571428
sg9
(dp261
g11
I6
ssg12
F4613.8898300000001
sg13
F3691.111864
sg14
F1597.3993462500002
sg15
F2554.7279643750003
sbag2
(g3
g4
NtRp262
(dp263
g7
F16053.108232857141
sg8
F15108.807748571428
sg9
(dp264
g11
I6
ssg12
F5536.6677959999997
sg13
F4613.8898300000001
sg14
F1597.3993462500002
sg15
F2554.7279643750003
sbag2
(g3
g4
NtRp265
(dp266
g7
F16053.108232857141
sg8
F15108.807748571428
sg9
(dp267
g11
I6
ssg12
F6459.4457619999994
sg13
F5536.6677959999997
sg14
F1597.3993462500002
sg15
F2554.7279643750003
sbag2
(g3
g4
NtRp268
(dp269
g7
F16053.108232857141
sg8
F15108.807748571428
sg9
(dp270
g11
I6
ssg12
F7382.2237279999999
sg13
F6459.4457620000003
sg14
F1597.3993462500002
sg15
F2554.7279643750003
sbag2
(g3
g4
NtRp271
(dp272
g7
F16053.108232857141
sg8
F15108.807748571428
sg9
(dp273
g11
I6
ssg12
F8305.0016940000005
sg13
F7382.2237279999999
sg14
F1597.3993462500002
sg15
F2554.7279643750003
sbag2
(g3
g4
NtRp274
(dp275
g7
F16053.108232857141
sg8
F15108.807748571428
sg9
(dp276
g11
I6
ssg12
F9227.7796600000001
sg13
F8305.0016940000005
sg14
F1597.3993462500002
sg15
F2554.7279643750003
sbag2
(g3
g4
NtRp277
(dp278
g7
F16053.108232857141
sg8
F15108.807748571428
sg9
(dp279
g11
I6
ssg12
F10150.557626
sg13
F9227.7796600000001
sg14
F1597.3993462500002
sg15
F2554.7279643750003
sbag2
(g3
g4
NtRp280
(dp281
g7
F16053.108232857141
sg8
F15108.807748571428
sg9
(dp282
g11
I6
ssg12
F11073.335591999999
sg13
F10150.557626
sg14
F1597.3993462500002
sg15
F2554.7279643750003
sbag2
(g3
g4
NtRp283
(dp284
g7
F16997.408717142855
sg8
F16053.108232857141
sg9
(dp285
g11
I6
ssg12
F5536.6677959999997
sg13
F4613.8898300000001
sg14
F1597.3993462500002
sg15
F2554.7279643750003
sbag2
(g3
g4
NtRp286
(dp287
g7
F16997.408717142855
sg8
F16053.108232857141
sg9
(dp288
g11
I6
ssg12
F6459.4457619999994
sg13
F5536.6677959999997
sg14
F1597.3993462500002
sg15
F2554.7279643750003
sbag2
(g3
g4
NtRp289
(dp290
g7
F16997.408717142855
sg8
F16053.108232857141
sg9
(dp291
g11
I6
ssg12
F7382.2237279999999
sg13
F6459.4457620000003
sg14
F1597.3993462500002
sg15
F2554.7279643750003
sbag2
(g3
g4
NtRp292
(dp293
g7
F16997.408717142855
sg8
F16053.108232857141
sg9
(dp294
g11
I6
ssg12
F8305.0016940000005
sg13
F7382.2237279999999
sg14
F1597.3993462500002
sg15
F2554.7279643750003
sbag2
(g3
g4
NtRp295
(dp296
g7
F16997.408717142855
sg8
F16053.108232857141
sg9
(dp297
g11
I6
ssg12
F9227.7796600000001
sg13
F8305.0016940000005
sg14
F1597.3993462500002
sg15
F2554.7279643750003
sbag2
(g3
g4
NtRp298
(dp299
g7
F16997.408717142855
sg8
F16053.108232857141
sg9
(dp300
g11
I6
ssg12
F10150.557626
sg13
F9227.7796600000001
sg14
F1597.3993462500002
sg15
F2554.7279643750003
sbag2
(g3
g4
NtRp301
(dp302
g7
F16997.408717142855
sg8
F16053.108232857141
sg9
(dp303
g11
I6
ssg12
F11073.335591999999
sg13
F10150.557626
sg14
F1597.3993462500002
sg15
F2554.7279643750003
sbag2
(g3
g4
NtRp304
(dp305
g7
F17941.70920142857
sg8
F16997.408717142855
sg9
(dp306
g11
I6
ssg12
F5536.6677959999997
sg13
F4613.8898300000001
sg14
F1597.3993462500002
sg15
F2554.7279643750003
sbag2
(g3
g4
NtRp307
(dp308
g7
F17941.70920142857
sg8
F16997.408717142855
sg9
(dp309
g11
I6
ssg12
F6459.4457619999994
sg13
F5536.6677959999997
sg14
F1597.3993462500002
sg15
F2554.7279643750003
sbag2
(g3
g4
NtRp310
(dp311
g7
F17941.70920142857
sg8
F16997.408717142855
sg9
(dp312
g11
I6
ssg12
F7382.2237279999999
sg13
F6459.4457620000003
sg14
F1597.3993462500002
sg15
F2554.7279643750003
sbag2
(g3
g4
NtRp313
(dp314
g7
F17941.70920142857
sg8
F16997.408717142855
sg9
(dp315
g11
I6
ssg12
F8305.0016940000005
sg13
F7382.2237279999999
sg14
F1597.3993462500002
sg15
F2554.7279643750003
sbag2
(g3
g4
NtRp316
(dp317
g7
F17941.70920142857
sg8
F16997.408717142855
sg9
(dp318
g11
I6
ssg12
F9227.7796600000001
sg13
F8305.0016940000005
sg14
F1597.3993462500002
sg15
F2554.7279643750003
sbag2
(g3
g4
NtRp319
(dp320
g7
F17941.70920142857
sg8
F16997.408717142855
sg9
(dp321
g11
I6
ssg12
F10150.557626
sg13
F9227.7796600000001
sg14
F1597.3993462500002
sg15
F2554.7279643750003
sbag2
(g3
g4
NtRp322
(dp323
g7
F17941.70920142857
sg8
F16997.408717142855
sg9
(dp324
g11
I6
ssg12
F11073.335591999999
sg13
F10150.557626
sg14
F1597.3993462500002
sg15
F2554.7279643750003
sbag2
(g3
g4
NtRp325
(dp326
g7
F17941.70920142857
sg8
F16997.408717142855
sg9
(dp327
g11
I6
ssg12
F11996.113557999999
sg13
F11073.335591999999
sg14
F1597.3993462500002
sg15
F2554.7279643750003
sbag2
(g3
g4
NtRp328
(dp329
g7
F18886.009685714285
sg8
F17941.70920142857
sg9
(dp330
g11
I6
ssg12
F5536.6677959999997
sg13
F4613.8898300000001
sg14
F1597.3993462500002
sg15
F2554.7279643750003
sbag2
(g3
g4
NtRp331
(dp332
g7
F18886.009685714285
sg8
F17941.70920142857
sg9
(dp333
g11
I6
ssg12
F6459.4457619999994
sg13
F5536.6677959999997
sg14
F1597.3993462500002
sg15
F2554.7279643750003
sbag2
(g3
g4
NtRp334
(dp335
g7
F18886.009685714285
sg8
F17941.70920142857
sg9
(dp336
g11
I6
ssg12
F7382.2237279999999
sg13
F6459.4457620000003
sg14
F1597.3993462500002
sg15
F2554.7279643750003
sbag2
(g3
g4
NtRp337
(dp338
g7
F18886.009685714285
sg8
F17941.70920142857
sg9
(dp339
g11
I6
ssg12
F8305.0016940000005
sg13
F7382.2237279999999
sg14
F1597.3993462500002
sg15
F2554.7279643750003
sbag2
(g3
g4
NtRp340
(dp341
g7
F18886.009685714285
sg8
F17941.70920142857
sg9
(dp342
g11
I6
ssg12
F9227.7796600000001
sg13
F8305.0016940000005
sg14
F1597.3993462500002
sg15
F2554.7279643750003
sbag2
(g3
g4
NtRp343
(dp344
g7
F18886.009685714285
sg8
F17941.70920142857
sg9
(dp345
g11
I6
ssg12
F10150.557626
sg13
F9227.7796600000001
sg14
F1597.3993462500002
sg15
F2554.7279643750003
sbag2
(g3
g4
NtRp346
(dp347
g7
F18886.009685714285
sg8
F17941.70920142857
sg9
(dp348
g11
I6
ssg12
F11073.335591999999
sg13
F10150.557626
sg14
F1597.3993462500002
sg15
F2554.7279643750003
sbag2
(g3
g4
NtRp349
(dp350
g7
F18886.009685714285
sg8
F17941.70920142857
sg9
(dp351
g11
I6
ssg12
F11996.113557999999
sg13
F11073.335591999999
sg14
F1597.3993462500002
sg15
F2554.7279643750003
sbag2
(g3
g4
NtRp352
(dp353
g7
F19830.310170000001
sg8
F18886.009685714285
sg9
(dp354
g11
I6
ssg12
F6459.4457619999994
sg13
F5536.6677959999997
sg14
F1597.3993462500002
sg15
F2554.7279643750003
sbag2
(g3
g4
NtRp355
(dp356
g7
F19830.310170000001
sg8
F18886.009685714285
sg9
(dp357
g11
I6
ssg12
F7382.2237279999999
sg13
F6459.4457620000003
sg14
F1597.3993462500002
sg15
F2554.7279643750003
sbag2
(g3
g4
NtRp358
(dp359
g7
F19830.310170000001
sg8
F18886.009685714285
sg9
(dp360
g11
I6
ssg12
F8305.0016940000005
sg13
F7382.2237279999999
sg14
F1597.3993462500002
sg15
F2554.7279643750003
sbag2
(g3
g4
NtRp361
(dp362
g7
F19830.310170000001
sg8
F18886.009685714285
sg9
(dp363
g11
I6
ssg12
F9227.7796600000001
sg13
F8305.0016940000005
sg14
F1597.3993462500002
sg15
F2554.7279643750003
sbag2
(g3
g4
NtRp364
(dp365
g7
F19830.310170000001
sg8
F18886.009685714285
sg9
(dp366
g11
I6
ssg12
F10150.557626
sg13
F9227.7796600000001
sg14
F1597.3993462500002
sg15
F2554.7279643750003
sbag2
(g3
g4
NtRp367
(dp368
g7
F19830.310170000001
sg8
F18886.009685714285
sg9
(dp369
g11
I6
ssg12
F11073.335591999999
sg13
F10150.557626
sg14
F1597.3993462500002
sg15
F2554.7279643750003
sbag2
(g3
g4
NtRp370
(dp371
g7
F19830.310170000001
sg8
F18886.009685714285
sg9
(dp372
g11
I6
ssg12
F11996.113557999999
sg13
F11073.335591999999
sg14
F1597.3993462500002
sg15
F2554.7279643750003
sbag2
(g3
g4
NtRp373
(dp374
g7
F20774.610654285712
sg8
F19830.310169999997
sg9
(dp375
g11
I6
ssg12
F6459.4457619999994
sg13
F5536.6677959999997
sg14
F1597.3993462500002
sg15
F2554.7279643750003
sbag2
(g3
g4
NtRp376
(dp377
g7
F20774.610654285712
sg8
F19830.310169999997
sg9
(dp378
g11
I6
ssg12
F7382.2237279999999
sg13
F6459.4457620000003
sg14
F1597.3993462500002
sg15
F2554.7279643750003
sbag2
(g3
g4
NtRp379
(dp380
g7
F20774.610654285712
sg8
F19830.310169999997
sg9
(dp381
g11
I6
ssg12
F8305.0016940000005
sg13
F7382.2237279999999
sg14
F1597.3993462500002
sg15
F2554.7279643750003
sbag2
(g3
g4
NtRp382
(dp383
g7
F20774.610654285712
sg8
F19830.310169999997
sg9
(dp384
g11
I6
ssg12
F9227.7796600000001
sg13
F8305.0016940000005
sg14
F1597.3993462500002
sg15
F2554.7279643750003
sbag2
(g3
g4
NtRp385
(dp386
g7
F20774.610654285712
sg8
F19830.310169999997
sg9
(dp387
g11
I6
ssg12
F10150.557626
sg13
F9227.7796600000001
sg14
F1597.3993462500002
sg15
F2554.7279643750003
sbag2
(g3
g4
NtRp388
(dp389
g7
F20774.610654285712
sg8
F19830.310169999997
sg9
(dp390
g11
I6
ssg12
F11073.335591999999
sg13
F10150.557626
sg14
F1597.3993462500002
sg15
F2554.7279643750003
sbag2
(g3
g4
NtRp391
(dp392
g7
F20774.610654285712
sg8
F19830.310169999997
sg9
(dp393
g11
I6
ssg12
F11996.113557999999
sg13
F11073.335591999999
sg14
F1597.3993462500002
sg15
F2554.7279643750003
sbag2
(g3
g4
NtRp394
(dp395
g7
F13220.206779999999
sg8
F12275.906295714285
sg9
(dp396
g11
I6
ssg12
F7382.2237279999999
sg13
F6459.4457620000003
sg14
F2554.7279643750003
sg15
F3512.0565825000003
sbag2
(g3
g4
NtRp397
(dp398
g7
F13220.206779999999
sg8
F12275.906295714285
sg9
(dp399
g11
I6
ssg12
F8305.0016940000005
sg13
F7382.2237279999999
sg14
F2554.7279643750003
sg15
F3512.0565825000003
sbag2
(g3
g4
NtRp400
(dp401
g7
F13220.206779999999
sg8
F12275.906295714285
sg9
(dp402
g11
I6
ssg12
F9227.7796600000001
sg13
F8305.0016940000005
sg14
F2554.7279643750003
sg15
F3512.0565825000003
sbag2
(g3
g4
NtRp403
(dp404
g7
F14164.507264285712
sg8
F13220.206779999999
sg9
(dp405
g11
I6
ssg12
F5536.6677959999997
sg13
F4613.8898300000001
sg14
F2554.7279643750003
sg15
F3512.0565825000003
sbag2
(g3
g4
NtRp406
(dp407
g7
F14164.507264285712
sg8
F13220.206779999999
sg9
(dp408
g11
I6
ssg12
F6459.4457619999994
sg13
F5536.6677959999997
sg14
F2554.7279643750003
sg15
F3512.0565825000003
sbag2
(g3
g4
NtRp409
(dp410
g7
F14164.507264285712
sg8
F13220.206779999999
sg9
(dp411
g11
I6
ssg12
F7382.2237279999999
sg13
F6459.4457620000003
sg14
F2554.7279643750003
sg15
F3512.0565825000003
sbag2
(g3
g4
NtRp412
(dp413
g7
F14164.507264285712
sg8
F13220.206779999999
sg9
(dp414
g11
I6
ssg12
F8305.0016940000005
sg13
F7382.2237279999999
sg14
F2554.7279643750003
sg15
F3512.0565825000003
sbag2
(g3
g4
NtRp415
(dp416
g7
F14164.507264285712
sg8
F13220.206779999999
sg9
(dp417
g11
I6
ssg12
F9227.7796600000001
sg13
F8305.0016940000005
sg14
F2554.7279643750003
sg15
F3512.0565825000003
sbag2
(g3
g4
NtRp418
(dp419
g7
F14164.507264285712
sg8
F13220.206779999999
sg9
(dp420
g11
I6
ssg12
F10150.557626
sg13
F9227.7796600000001
sg14
F2554.7279643750003
sg15
F3512.0565825000003
sbag2
(g3
g4
NtRp421
(dp422
g7
F15108.807748571428
sg8
F14164.507264285714
sg9
(dp423
g11
I6
ssg12
F5536.6677959999997
sg13
F4613.8898300000001
sg14
F2554.7279643750003
sg15
F3512.0565825000003
sbag2
(g3
g4
NtRp424
(dp425
g7
F15108.807748571428
sg8
F14164.507264285714
sg9
(dp426
g11
I6
ssg12
F6459.4457619999994
sg13
F5536.6677959999997
sg14
F2554.7279643750003
sg15
F3512.0565825000003
sbag2
(g3
g4
NtRp427
(dp428
g7
F15108.807748571428
sg8
F14164.507264285714
sg9
(dp429
g11
I6
ssg12
F7382.2237279999999
sg13
F6459.4457620000003
sg14
F2554.7279643750003
sg15
F3512.0565825000003
sbag2
(g3
g4
NtRp430
(dp431
g7
F15108.807748571428
sg8
F14164.507264285714
sg9
(dp432
g11
I6
ssg12
F8305.0016940000005
sg13
F7382.2237279999999
sg14
F2554.7279643750003
sg15
F3512.0565825000003
sbag2
(g3
g4
NtRp433
(dp434
g7
F15108.807748571428
sg8
F14164.507264285714
sg9
(dp435
g11
I6
ssg12
F9227.7796600000001
sg13
F8305.0016940000005
sg14
F2554.7279643750003
sg15
F3512.0565825000003
sbag2
(g3
g4
NtRp436
(dp437
g7
F15108.807748571428
sg8
F14164.507264285714
sg9
(dp438
g11
I6
ssg12
F10150.557626
sg13
F9227.7796600000001
sg14
F2554.7279643750003
sg15
F3512.0565825000003
sbag2
(g3
g4
NtRp439
(dp440
g7
F15108.807748571428
sg8
F14164.507264285714
sg9
(dp441
g11
I6
ssg12
F11073.335591999999
sg13
F10150.557626
sg14
F2554.7279643750003
sg15
F3512.0565825000003
sbag2
(g3
g4
NtRp442
(dp443
g7
F16053.108232857141
sg8
F15108.807748571428
sg9
(dp444
g11
I6
ssg12
F5536.6677959999997
sg13
F4613.8898300000001
sg14
F2554.7279643750003
sg15
F3512.0565825000003
sbag2
(g3
g4
NtRp445
(dp446
g7
F16053.108232857141
sg8
F15108.807748571428
sg9
(dp447
g11
I6
ssg12
F6459.4457619999994
sg13
F5536.6677959999997
sg14
F2554.7279643750003
sg15
F3512.0565825000003
sbag2
(g3
g4
NtRp448
(dp449
g7
F16053.108232857141
sg8
F15108.807748571428
sg9
(dp450
g11
I6
ssg12
F7382.2237279999999
sg13
F6459.4457620000003
sg14
F2554.7279643750003
sg15
F3512.0565825000003
sbag2
(g3
g4
NtRp451
(dp452
g7
F16053.108232857141
sg8
F15108.807748571428
sg9
(dp453
g11
I6
ssg12
F8305.0016940000005
sg13
F7382.2237279999999
sg14
F2554.7279643750003
sg15
F3512.0565825000003
sbag2
(g3
g4
NtRp454
(dp455
g7
F16053.108232857141
sg8
F15108.807748571428
sg9
(dp456
g11
I6
ssg12
F9227.7796600000001
sg13
F8305.0016940000005
sg14
F2554.7279643750003
sg15
F3512.0565825000003
sbag2
(g3
g4
NtRp457
(dp458
g7
F16053.108232857141
sg8
F15108.807748571428
sg9
(dp459
g11
I6
ssg12
F10150.557626
sg13
F9227.7796600000001
sg14
F2554.7279643750003
sg15
F3512.0565825000003
sbag2
(g3
g4
NtRp460
(dp461
g7
F16053.108232857141
sg8
F15108.807748571428
sg9
(dp462
g11
I6
ssg12
F11073.335591999999
sg13
F10150.557626
sg14
F2554.7279643750003
sg15
F3512.0565825000003
sbag2
(g3
g4
NtRp463
(dp464
g7
F16997.408717142855
sg8
F16053.108232857141
sg9
(dp465
g11
I6
ssg12
F4613.8898300000001
sg13
F3691.111864
sg14
F2554.7279643750003
sg15
F3512.0565825000003
sbag2
(g3
g4
NtRp466
(dp467
g7
F16997.408717142855
sg8
F16053.108232857141
sg9
(dp468
g11
I6
ssg12
F5536.6677959999997
sg13
F4613.8898300000001
sg14
F2554.7279643750003
sg15
F3512.0565825000003
sbag2
(g3
g4
NtRp469
(dp470
g7
F16997.408717142855
sg8
F16053.108232857141
sg9
(dp471
g11
I6
ssg12
F6459.4457619999994
sg13
F5536.6677959999997
sg14
F2554.7279643750003
sg15
F3512.0565825000003
sbag2
(g3
g4
NtRp472
(dp473
g7
F16997.408717142855
sg8
F16053.108232857141
sg9
(dp474
g11
I6
ssg12
F7382.2237279999999
sg13
F6459.4457620000003
sg14
F2554.7279643750003
sg15
F3512.0565825000003
sbag2
(g3
g4
NtRp475
(dp476
g7
F16997.408717142855
sg8
F16053.108232857141
sg9
(dp477
g11
I6
ssg12
F8305.0016940000005
sg13
F7382.2237279999999
sg14
F2554.7279643750003
sg15
F3512.0565825000003
sbag2
(g3
g4
NtRp478
(dp479
g7
F16997.408717142855
sg8
F16053.108232857141
sg9
(dp480
g11
I6
ssg12
F9227.7796600000001
sg13
F8305.0016940000005
sg14
F2554.7279643750003
sg15
F3512.0565825000003
sbag2
(g3
g4
NtRp481
(dp482
g7
F16997.408717142855
sg8
F16053.108232857141
sg9
(dp483
g11
I6
ssg12
F10150.557626
sg13
F9227.7796600000001
sg14
F2554.7279643750003
sg15
F3512.0565825000003
sbag2
(g3
g4
NtRp484
(dp485
g7
F16997.408717142855
sg8
F16053.108232857141
sg9
(dp486
g11
I6
ssg12
F11073.335591999999
sg13
F10150.557626
sg14
F2554.7279643750003
sg15
F3512.0565825000003
sbag2
(g3
g4
NtRp487
(dp488
g7
F16997.408717142855
sg8
F16053.108232857141
sg9
(dp489
g11
I6
ssg12
F11996.113557999999
sg13
F11073.335591999999
sg14
F2554.7279643750003
sg15
F3512.0565825000003
sbag2
(g3
g4
NtRp490
(dp491
g7
F17941.70920142857
sg8
F16997.408717142855
sg9
(dp492
g11
I6
ssg12
F5536.6677959999997
sg13
F4613.8898300000001
sg14
F2554.7279643750003
sg15
F3512.0565825000003
sbag2
(g3
g4
NtRp493
(dp494
g7
F17941.70920142857
sg8
F16997.408717142855
sg9
(dp495
g11
I6
ssg12
F6459.4457619999994
sg13
F5536.6677959999997
sg14
F2554.7279643750003
sg15
F3512.0565825000003
sbag2
(g3
g4
NtRp496
(dp497
g7
F17941.70920142857
sg8
F16997.408717142855
sg9
(dp498
g11
I6
ssg12
F7382.2237279999999
sg13
F6459.4457620000003
sg14
F2554.7279643750003
sg15
F3512.0565825000003
sbag2
(g3
g4
NtRp499
(dp500
g7
F17941.70920142857
sg8
F16997.408717142855
sg9
(dp501
g11
I6
ssg12
F8305.0016940000005
sg13
F7382.2237279999999
sg14
F2554.7279643750003
sg15
F3512.0565825000003
sbag2
(g3
g4
NtRp502
(dp503
g7
F17941.70920142857
sg8
F16997.408717142855
sg9
(dp504
g11
I6
ssg12
F9227.7796600000001
sg13
F8305.0016940000005
sg14
F2554.7279643750003
sg15
F3512.0565825000003
sbag2
(g3
g4
NtRp505
(dp506
g7
F17941.70920142857
sg8
F16997.408717142855
sg9
(dp507
g11
I6
ssg12
F10150.557626
sg13
F9227.7796600000001
sg14
F2554.7279643750003
sg15
F3512.0565825000003
sbag2
(g3
g4
NtRp508
(dp509
g7
F17941.70920142857
sg8
F16997.408717142855
sg9
(dp510
g11
I6
ssg12
F11073.335591999999
sg13
F10150.557626
sg14
F2554.7279643750003
sg15
F3512.0565825000003
sbag2
(g3
g4
NtRp511
(dp512
g7
F17941.70920142857
sg8
F16997.408717142855
sg9
(dp513
g11
I6
ssg12
F11996.113557999999
sg13
F11073.335591999999
sg14
F2554.7279643750003
sg15
F3512.0565825000003
sbag2
(g3
g4
NtRp514
(dp515
g7
F18886.009685714285
sg8
F17941.70920142857
sg9
(dp516
g11
I6
ssg12
F5536.6677959999997
sg13
F4613.8898300000001
sg14
F2554.7279643750003
sg15
F3512.0565825000003
sbag2
(g3
g4
NtRp517
(dp518
g7
F18886.009685714285
sg8
F17941.70920142857
sg9
(dp519
g11
I6
ssg12
F6459.4457619999994
sg13
F5536.6677959999997
sg14
F2554.7279643750003
sg15
F3512.0565825000003
sbag2
(g3
g4
NtRp520
(dp521
g7
F18886.009685714285
sg8
F17941.70920142857
sg9
(dp522
g11
I6
ssg12
F7382.2237279999999
sg13
F6459.4457620000003
sg14
F2554.7279643750003
sg15
F3512.0565825000003
sbag2
(g3
g4
NtRp523
(dp524
g7
F18886.009685714285
sg8
F17941.70920142857
sg9
(dp525
g11
I6
ssg12
F8305.0016940000005
sg13
F7382.2237279999999
sg14
F2554.7279643750003
sg15
F3512.0565825000003
sbag2
(g3
g4
NtRp526
(dp527
g7
F18886.009685714285
sg8
F17941.70920142857
sg9
(dp528
g11
I6
ssg12
F9227.7796600000001
sg13
F8305.0016940000005
sg14
F2554.7279643750003
sg15
F3512.0565825000003
sbag2
(g3
g4
NtRp529
(dp530
g7
F18886.009685714285
sg8
F17941.70920142857
sg9
(dp531
g11
I6
ssg12
F10150.557626
sg13
F9227.7796600000001
sg14
F2554.7279643750003
sg15
F3512.0565825000003
sbag2
(g3
g4
NtRp532
(dp533
g7
F18886.009685714285
sg8
F17941.70920142857
sg9
(dp534
g11
I6
ssg12
F11073.335591999999
sg13
F10150.557626
sg14
F2554.7279643750003
sg15
F3512.0565825000003
sbag2
(g3
g4
NtRp535
(dp536
g7
F18886.009685714285
sg8
F17941.70920142857
sg9
(dp537
g11
I6
ssg12
F11996.113557999999
sg13
F11073.335591999999
sg14
F2554.7279643750003
sg15
F3512.0565825000003
sbag2
(g3
g4
NtRp538
(dp539
g7
F19830.310170000001
sg8
F18886.009685714285
sg9
(dp540
g11
I6
ssg12
F6459.4457619999994
sg13
F5536.6677959999997
sg14
F2554.7279643750003
sg15
F3512.0565825000003
sbag2
(g3
g4
NtRp541
(dp542
g7
F19830.310170000001
sg8
F18886.009685714285
sg9
(dp543
g11
I6
ssg12
F7382.2237279999999
sg13
F6459.4457620000003
sg14
F2554.7279643750003
sg15
F3512.0565825000003
sbag2
(g3
g4
NtRp544
(dp545
g7
F19830.310170000001
sg8
F18886.009685714285
sg9
(dp546
g11
I6
ssg12
F8305.0016940000005
sg13
F7382.2237279999999
sg14
F2554.7279643750003
sg15
F3512.0565825000003
sbag2
(g3
g4
NtRp547
(dp548
g7
F19830.310170000001
sg8
F18886.009685714285
sg9
(dp549
g11
I6
ssg12
F9227.7796600000001
sg13
F8305.0016940000005
sg14
F2554.7279643750003
sg15
F3512.0565825000003
sbag2
(g3
g4
NtRp550
(dp551
g7
F19830.310170000001
sg8
F18886.009685714285
sg9
(dp552
g11
I6
ssg12
F10150.557626
sg13
F9227.7796600000001
sg14
F2554.7279643750003
sg15
F3512.0565825000003
sbag2
(g3
g4
NtRp553
(dp554
g7
F19830.310170000001
sg8
F18886.009685714285
sg9
(dp555
g11
I6
ssg12
F11073.335591999999
sg13
F10150.557626
sg14
F2554.7279643750003
sg15
F3512.0565825000003
sbag2
(g3
g4
NtRp556
(dp557
g7
F19830.310170000001
sg8
F18886.009685714285
sg9
(dp558
g11
I6
ssg12
F11996.113557999999
sg13
F11073.335591999999
sg14
F2554.7279643750003
sg15
F3512.0565825000003
sbag2
(g3
g4
NtRp559
(dp560
g7
F20774.610654285712
sg8
F19830.310169999997
sg9
(dp561
g11
I6
ssg12
F6459.4457619999994
sg13
F5536.6677959999997
sg14
F2554.7279643750003
sg15
F3512.0565825000003
sbag2
(g3
g4
NtRp562
(dp563
g7
F20774.610654285712
sg8
F19830.310169999997
sg9
(dp564
g11
I6
ssg12
F7382.2237279999999
sg13
F6459.4457620000003
sg14
F2554.7279643750003
sg15
F3512.0565825000003
sbag2
(g3
g4
NtRp565
(dp566
g7
F20774.610654285712
sg8
F19830.310169999997
sg9
(dp567
g11
I6
ssg12
F8305.0016940000005
sg13
F7382.2237279999999
sg14
F2554.7279643750003
sg15
F3512.0565825000003
sbag2
(g3
g4
NtRp568
(dp569
g7
F20774.610654285712
sg8
F19830.310169999997
sg9
(dp570
g11
I6
ssg12
F9227.7796600000001
sg13
F8305.0016940000005
sg14
F2554.7279643750003
sg15
F3512.0565825000003
sbag2
(g3
g4
NtRp571
(dp572
g7
F20774.610654285712
sg8
F19830.310169999997
sg9
(dp573
g11
I6
ssg12
F10150.557626
sg13
F9227.7796600000001
sg14
F2554.7279643750003
sg15
F3512.0565825000003
sbag2
(g3
g4
NtRp574
(dp575
g7
F20774.610654285712
sg8
F19830.310169999997
sg9
(dp576
g11
I6
ssg12
F11073.335591999999
sg13
F10150.557626
sg14
F2554.7279643750003
sg15
F3512.0565825000003
sbag2
(g3
g4
NtRp577
(dp578
g7
F14164.507264285712
sg8
F13220.206779999999
sg9
(dp579
g11
I6
ssg12
F7382.2237279999999
sg13
F6459.4457620000003
sg14
F3512.0565825000003
sg15
F4469.3852006249999
sbag2
(g3
g4
NtRp580
(dp581
g7
F14164.507264285712
sg8
F13220.206779999999
sg9
(dp582
g11
I6
ssg12
F8305.0016940000005
sg13
F7382.2237279999999
sg14
F3512.0565825000003
sg15
F4469.3852006249999
sbag2
(g3
g4
NtRp583
(dp584
g7
F14164.507264285712
sg8
F13220.206779999999
sg9
(dp585
g11
I6
ssg12
F9227.7796600000001
sg13
F8305.0016940000005
sg14
F3512.0565825000003
sg15
F4469.3852006249999
sbag2
(g3
g4
NtRp586
(dp587
g7
F15108.807748571428
sg8
F14164.507264285714
sg9
(dp588
g11
I6
ssg12
F5536.6677959999997
sg13
F4613.8898300000001
sg14
F3512.0565825000003
sg15
F4469.3852006249999
sbag2
(g3
g4
NtRp589
(dp590
g7
F15108.807748571428
sg8
F14164.507264285714
sg9
(dp591
g11
I6
ssg12
F6459.4457619999994
sg13
F5536.6677959999997
sg14
F3512.0565825000003
sg15
F4469.3852006249999
sbag2
(g3
g4
NtRp592
(dp593
g7
F15108.807748571428
sg8
F14164.507264285714
sg9
(dp594
g11
I6
ssg12
F7382.2237279999999
sg13
F6459.4457620000003
sg14
F3512.0565825000003
sg15
F4469.3852006249999
sbag2
(g3
g4
NtRp595
(dp596
g7
F15108.807748571428
sg8
F14164.507264285714
sg9
(dp597
g11
I6
ssg12
F8305.0016940000005
sg13
F7382.2237279999999
sg14
F3512.0565825000003
sg15
F4469.3852006249999
sbag2
(g3
g4
NtRp598
(dp599
g7
F15108.807748571428
sg8
F14164.507264285714
sg9
(dp600
g11
I6
ssg12
F9227.7796600000001
sg13
F8305.0016940000005
sg14
F3512.0565825000003
sg15
F4469.3852006249999
sbag2
(g3
g4
NtRp601
(dp602
g7
F15108.807748571428
sg8
F14164.507264285714
sg9
(dp603
g11
I6
ssg12
F10150.557626
sg13
F9227.7796600000001
sg14
F3512.0565825000003
sg15
F4469.3852006249999
sbag2
(g3
g4
NtRp604
(dp605
g7
F16053.108232857141
sg8
F15108.807748571428
sg9
(dp606
g11
I6
ssg12
F5536.6677959999997
sg13
F4613.8898300000001
sg14
F3512.0565825000003
sg15
F4469.3852006249999
sbag2
(g3
g4
NtRp607
(dp608
g7
F16053.108232857141
sg8
F15108.807748571428
sg9
(dp609
g11
I6
ssg12
F6459.4457619999994
sg13
F5536.6677959999997
sg14
F3512.0565825000003
sg15
F4469.3852006249999
sbag2
(g3
g4
NtRp610
(dp611
g7
F16053.108232857141
sg8
F15108.807748571428
sg9
(dp612
g11
I6
ssg12
F7382.2237279999999
sg13
F6459.4457620000003
sg14
F3512.0565825000003
sg15
F4469.3852006249999
sbag2
(g3
g4
NtRp613
(dp614
g7
F16053.108232857141
sg8
F15108.807748571428
sg9
(dp615
g11
I6
ssg12
F8305.0016940000005
sg13
F7382.2237279999999
sg14
F3512.0565825000003
sg15
F4469.3852006249999
sbag2
(g3
g4
NtRp616
(dp617
g7
F16053.108232857141
sg8
F15108.807748571428
sg9
(dp618
g11
I6
ssg12
F9227.7796600000001
sg13
F8305.0016940000005
sg14
F3512.0565825000003
sg15
F4469.3852006249999
sbag2
(g3
g4
NtRp619
(dp620
g7
F16053.108232857141
sg8
F15108.807748571428
sg9
(dp621
g11
I6
ssg12
F10150.557626
sg13
F9227.7796600000001
sg14
F3512.0565825000003
sg15
F4469.3852006249999
sbag2
(g3
g4
NtRp622
(dp623
g7
F16053.108232857141
sg8
F15108.807748571428
sg9
(dp624
g11
I6
ssg12
F11073.335591999999
sg13
F10150.557626
sg14
F3512.0565825000003
sg15
F4469.3852006249999
sbag2
(g3
g4
NtRp625
(dp626
g7
F16997.408717142855
sg8
F16053.108232857141
sg9
(dp627
g11
I6
ssg12
F5536.6677959999997
sg13
F4613.8898300000001
sg14
F3512.0565825000003
sg15
F4469.3852006249999
sbag2
(g3
g4
NtRp628
(dp629
g7
F16997.408717142855
sg8
F16053.108232857141
sg9
(dp630
g11
I6
ssg12
F6459.4457619999994
sg13
F5536.6677959999997
sg14
F3512.0565825000003
sg15
F4469.3852006249999
sbag2
(g3
g4
NtRp631
(dp632
g7
F16997.408717142855
sg8
F16053.108232857141
sg9
(dp633
g11
I6
ssg12
F7382.2237279999999
sg13
F6459.4457620000003
sg14
F3512.0565825000003
sg15
F4469.3852006249999
sbag2
(g3
g4
NtRp634
(dp635
g7
F16997.408717142855
sg8
F16053.108232857141
sg9
(dp636
g11
I6
ssg12
F8305.0016940000005
sg13
F7382.2237279999999
sg14
F3512.0565825000003
sg15
F4469.3852006249999
sbag2
(g3
g4
NtRp637
(dp638
g7
F16997.408717142855
sg8
F16053.108232857141
sg9
(dp639
g11
I6
ssg12
F9227.7796600000001
sg13
F8305.0016940000005
sg14
F3512.0565825000003
sg15
F4469.3852006249999
sbag2
(g3
g4
NtRp640
(dp641
g7
F16997.408717142855
sg8
F16053.108232857141
sg9
(dp642
g11
I6
ssg12
F10150.557626
sg13
F9227.7796600000001
sg14
F3512.0565825000003
sg15
F4469.3852006249999
sbag2
(g3
g4
NtRp643
(dp644
g7
F16997.408717142855
sg8
F16053.108232857141
sg9
(dp645
g11
I6
ssg12
F11073.335591999999
sg13
F10150.557626
sg14
F3512.0565825000003
sg15
F4469.3852006249999
sbag2
(g3
g4
NtRp646
(dp647
g7
F17941.70920142857
sg8
F16997.408717142855
sg9
(dp648
g11
I6
ssg12
F5536.6677959999997
sg13
F4613.8898300000001
sg14
F3512.0565825000003
sg15
F4469.3852006249999
sbag2
(g3
g4
NtRp649
(dp650
g7
F17941.70920142857
sg8
F16997.408717142855
sg9
(dp651
g11
I6
ssg12
F6459.4457619999994
sg13
F5536.6677959999997
sg14
F3512.0565825000003
sg15
F4469.3852006249999
sbag2
(g3
g4
NtRp652
(dp653
g7
F17941.70920142857
sg8
F16997.408717142855
sg9
(dp654
g11
I6
ssg12
F7382.2237279999999
sg13
F6459.4457620000003
sg14
F3512.0565825000003
sg15
F4469.3852006249999
sbag2
(g3
g4
NtRp655
(dp656
g7
F17941.70920142857
sg8
F16997.408717142855
sg9
(dp657
g11
I6
ssg12
F8305.0016940000005
sg13
F7382.2237279999999
sg14
F3512.0565825000003
sg15
F4469.3852006249999
sbag2
(g3
g4
NtRp658
(dp659
g7
F17941.70920142857
sg8
F16997.408717142855
sg9
(dp660
g11
I6
ssg12
F9227.7796600000001
sg13
F8305.0016940000005
sg14
F3512.0565825000003
sg15
F4469.3852006249999
sbag2
(g3
g4
NtRp661
(dp662
g7
F17941.70920142857
sg8
F16997.408717142855
sg9
(dp663
g11
I6
ssg12
F10150.557626
sg13
F9227.7796600000001
sg14
F3512.0565825000003
sg15
F4469.3852006249999
sbag2
(g3
g4
NtRp664
(dp665
g7
F17941.70920142857
sg8
F16997.408717142855
sg9
(dp666
g11
I6
ssg12
F11073.335591999999
sg13
F10150.557626
sg14
F3512.0565825000003
sg15
F4469.3852006249999
sbag2
(g3
g4
NtRp667
(dp668
g7
F18886.009685714285
sg8
F17941.70920142857
sg9
(dp669
g11
I6
ssg12
F5536.6677959999997
sg13
F4613.8898300000001
sg14
F3512.0565825000003
sg15
F4469.3852006249999
sbag2
(g3
g4
NtRp670
(dp671
g7
F18886.009685714285
sg8
F17941.70920142857
sg9
(dp672
g11
I6
ssg12
F6459.4457619999994
sg13
F5536.6677959999997
sg14
F3512.0565825000003
sg15
F4469.3852006249999
sbag2
(g3
g4
NtRp673
(dp674
g7
F18886.009685714285
sg8
F17941.70920142857
sg9
(dp675
g11
I6
ssg12
F7382.2237279999999
sg13
F6459.4457620000003
sg14
F3512.0565825000003
sg15
F4469.3852006249999
sbag2
(g3
g4
NtRp676
(dp677
g7
F18886.009685714285
sg8
F17941.70920142857
sg9
(dp678
g11
I6
ssg12
F8305.0016940000005
sg13
F7382.2237279999999
sg14
F3512.0565825000003
sg15
F4469.3852006249999
sbag2
(g3
g4
NtRp679
(dp680
g7
F18886.009685714285
sg8
F17941.70920142857
sg9
(dp681
g11
I6
ssg12
F9227.7796600000001
sg13
F8305.0016940000005
sg14
F3512.0565825000003
sg15
F4469.3852006249999
sbag2
(g3
g4
NtRp682
(dp683
g7
F18886.009685714285
sg8
F17941.70920142857
sg9
(dp684
g11
I6
ssg12
F10150.557626
sg13
F9227.7796600000001
sg14
F3512.0565825000003
sg15
F4469.3852006249999
sbag2
(g3
g4
NtRp685
(dp686
g7
F18886.009685714285
sg8
F17941.70920142857
sg9
(dp687
g11
I6
ssg12
F11073.335591999999
sg13
F10150.557626
sg14
F3512.0565825000003
sg15
F4469.3852006249999
sbag2
(g3
g4
NtRp688
(dp689
g7
F19830.310170000001
sg8
F18886.009685714285
sg9
(dp690
g11
I6
ssg12
F6459.4457619999994
sg13
F5536.6677959999997
sg14
F3512.0565825000003
sg15
F4469.3852006249999
sbag2
(g3
g4
NtRp691
(dp692
g7
F19830.310170000001
sg8
F18886.009685714285
sg9
(dp693
g11
I6
ssg12
F7382.2237279999999
sg13
F6459.4457620000003
sg14
F3512.0565825000003
sg15
F4469.3852006249999
sbag2
(g3
g4
NtRp694
(dp695
g7
F19830.310170000001
sg8
F18886.009685714285
sg9
(dp696
g11
I6
ssg12
F8305.0016940000005
sg13
F7382.2237279999999
sg14
F3512.0565825000003
sg15
F4469.3852006249999
sbag2
(g3
g4
NtRp697
(dp698
g7
F19830.310170000001
sg8
F18886.009685714285
sg9
(dp699
g11
I6
ssg12
F9227.7796600000001
sg13
F8305.0016940000005
sg14
F3512.0565825000003
sg15
F4469.3852006249999
sbag2
(g3
g4
NtRp700
(dp701
g7
F19830.310170000001
sg8
F18886.009685714285
sg9
(dp702
g11
I6
ssg12
F10150.557626
sg13
F9227.7796600000001
sg14
F3512.0565825000003
sg15
F4469.3852006249999
sbag2
(g3
g4
NtRp703
(dp704
g7
F19830.310170000001
sg8
F18886.009685714285
sg9
(dp705
g11
I6
ssg12
F11073.335591999999
sg13
F10150.557626
sg14
F3512.0565825000003
sg15
F4469.3852006249999
sbag2
(g3
g4
NtRp706
(dp707
g7
F16053.108232857141
sg8
F15108.807748571428
sg9
(dp708
g11
I6
ssg12
F6459.4457619999994
sg13
F5536.6677959999997
sg14
F4469.3852006250008
sg15
F5426.7138187500004
sbag2
(g3
g4
NtRp709
(dp710
g7
F16053.108232857141
sg8
F15108.807748571428
sg9
(dp711
g11
I6
ssg12
F7382.2237279999999
sg13
F6459.4457620000003
sg14
F4469.3852006250008
sg15
F5426.7138187500004
sbag2
(g3
g4
NtRp712
(dp713
g7
F16053.108232857141
sg8
F15108.807748571428
sg9
(dp714
g11
I6
ssg12
F8305.0016940000005
sg13
F7382.2237279999999
sg14
F4469.3852006250008
sg15
F5426.7138187500004
sbag2
(g3
g4
NtRp715
(dp716
g7
F16053.108232857141
sg8
F15108.807748571428
sg9
(dp717
g11
I6
ssg12
F9227.7796600000001
sg13
F8305.0016940000005
sg14
F4469.3852006250008
sg15
F5426.7138187500004
sbag2
(g3
g4
NtRp718
(dp719
g7
F16997.408717142855
sg8
F16053.108232857141
sg9
(dp720
g11
I6
ssg12
F6459.4457619999994
sg13
F5536.6677959999997
sg14
F4469.3852006250008
sg15
F5426.7138187500004
sbag2
(g3
g4
NtRp721
(dp722
g7
F16997.408717142855
sg8
F16053.108232857141
sg9
(dp723
g11
I6
ssg12
F7382.2237279999999
sg13
F6459.4457620000003
sg14
F4469.3852006250008
sg15
F5426.7138187500004
sbag2
(g3
g4
NtRp724
(dp725
g7
F16997.408717142855
sg8
F16053.108232857141
sg9
(dp726
g11
I6
ssg12
F8305.0016940000005
sg13
F7382.2237279999999
sg14
F4469.3852006250008
sg15
F5426.7138187500004
sbag2
(g3
g4
NtRp727
(dp728
g7
F16997.408717142855
sg8
F16053.108232857141
sg9
(dp729
g11
I6
ssg12
F9227.7796600000001
sg13
F8305.0016940000005
sg14
F4469.3852006250008
sg15
F5426.7138187500004
sbag2
(g3
g4
NtRp730
(dp731
g7
F16997.408717142855
sg8
F16053.108232857141
sg9
(dp732
g11
I6
ssg12
F10150.557626
sg13
F9227.7796600000001
sg14
F4469.3852006250008
sg15
F5426.7138187500004
sbag2
(g3
g4
NtRp733
(dp734
g7
F17941.70920142857
sg8
F16997.408717142855
sg9
(dp735
g11
I6
ssg12
F6459.4457619999994
sg13
F5536.6677959999997
sg14
F4469.3852006250008
sg15
F5426.7138187500004
sbag2
(g3
g4
NtRp736
(dp737
g7
F17941.70920142857
sg8
F16997.408717142855
sg9
(dp738
g11
I6
ssg12
F7382.2237279999999
sg13
F6459.4457620000003
sg14
F4469.3852006250008
sg15
F5426.7138187500004
sbag2
(g3
g4
NtRp739
(dp740
g7
F17941.70920142857
sg8
F16997.408717142855
sg9
(dp741
g11
I6
ssg12
F8305.0016940000005
sg13
F7382.2237279999999
sg14
F4469.3852006250008
sg15
F5426.7138187500004
sbag2
(g3
g4
NtRp742
(dp743
g7
F17941.70920142857
sg8
F16997.408717142855
sg9
(dp744
g11
I6
ssg12
F9227.7796600000001
sg13
F8305.0016940000005
sg14
F4469.3852006250008
sg15
F5426.7138187500004
sbag2
(g3
g4
NtRp745
(dp746
g7
F17941.70920142857
sg8
F16997.408717142855
sg9
(dp747
g11
I6
ssg12
F10150.557626
sg13
F9227.7796600000001
sg14
F4469.3852006250008
sg15
F5426.7138187500004
sbag2
(g3
g4
NtRp748
(dp749
g7
F18886.009685714285
sg8
F17941.70920142857
sg9
(dp750
g11
I6
ssg12
F7382.2237279999999
sg13
F6459.4457620000003
sg14
F4469.3852006250008
sg15
F5426.7138187500004
sbag2
(g3
g4
NtRp751
(dp752
g7
F18886.009685714285
sg8
F17941.70920142857
sg9
(dp753
g11
I6
ssg12
F8305.0016940000005
sg13
F7382.2237279999999
sg14
F4469.3852006250008
sg15
F5426.7138187500004
sbag2
(g3
g4
NtRp754
(dp755
g7
F18886.009685714285
sg8
F17941.70920142857
sg9
(dp756
g11
I6
ssg12
F9227.7796600000001
sg13
F8305.0016940000005
sg14
F4469.3852006250008
sg15
F5426.7138187500004
sba.